target datalayout = "e-m:e-p270:32:32-p271:32:32-p272:64:64-i64:64-i128:128-f80:128-n8:16:32:64-S128"
target triple = "x86_64-pc-linux-gnu"

%struct.psa_hash_operation_s = type { i32, %union.psa_driver_hash_context_t }
%union.psa_driver_hash_context_t = type { %struct.mbedtls_psa_hash_operation_t }
%struct.mbedtls_psa_hash_operation_t = type { i32, %union.anon.1 }
%union.anon.1 = type { %struct.mbedtls_sha512_context }
%struct.mbedtls_sha512_context = type { [2 x i64], [8 x i64], [128 x i8], i32 }
%struct.psa_mac_operation_s = type { i32, i8, i8, %union.psa_driver_mac_context_t }
%union.psa_driver_mac_context_t = type { %struct.mbedtls_psa_mac_operation_t }
%struct.mbedtls_psa_mac_operation_t = type { i32, %union.anon.2 }
%union.anon.2 = type { %struct.mbedtls_psa_hmac_operation_t }
%struct.mbedtls_psa_hmac_operation_t = type { i32, %struct.psa_hash_operation_s, [144 x i8] }
%struct.psa_key_derivation_s = type { i32, i8, i64, %union.psa_driver_key_derivation_context_t }
%union.psa_driver_key_derivation_context_t = type { %struct.psa_hkdf_key_derivation_t }
%struct.psa_hkdf_key_derivation_t = type { ptr, i64, i8, i8, i8, [64 x i8], [64 x i8], %struct.psa_mac_operation_s }

; Function Attrs: nounwind uwtable
define hidden i32 @psa_key_derivation_set_capacity(ptr noundef %0, i64 noundef %1) #0 {
  %3 = alloca i32, align 4
  %4 = alloca ptr, align 8
  %5 = alloca i64, align 8
  store ptr %0, ptr %4, align 8, !tbaa !105
  store i64 %1, ptr %5, align 8, !tbaa !20
  %6 = load ptr, ptr %4, align 8, !tbaa !105
  %7 = getelementptr inbounds nuw %struct.psa_key_derivation_s, ptr %6, i32 0, i32 0
  %8 = load i32, ptr %7, align 8, !tbaa !107
  %9 = icmp eq i32 %8, 0
  br i1 %9, label %10, label %11

10:                                               ; preds = %2
  store i32 -137, ptr %3, align 4
  br label %22

11:                                               ; preds = %2
  %12 = load i64, ptr %5, align 8, !tbaa !20
  %13 = load ptr, ptr %4, align 8, !tbaa !105
  %14 = getelementptr inbounds nuw %struct.psa_key_derivation_s, ptr %13, i32 0, i32 2
  %15 = load i64, ptr %14, align 8, !tbaa !109
  %16 = icmp ugt i64 %12, %15
  br i1 %16, label %17, label %18

17:                                               ; preds = %11
  store i32 -135, ptr %3, align 4
  br label %22

18:                                               ; preds = %11
  %19 = load i64, ptr %5, align 8, !tbaa !20
  %20 = load ptr, ptr %4, align 8, !tbaa !105
  %21 = getelementptr inbounds nuw %struct.psa_key_derivation_s, ptr %20, i32 0, i32 2
  store i64 %19, ptr %21, align 8, !tbaa !109
  store i32 0, ptr %3, align 4
  br label %22

22:                                               ; preds = %18, %17, %10
  %23 = load i32, ptr %3, align 4
  ret i32 %23
}