; Function Attrs: mustprogress nofree norecurse nosync nounwind willreturn memory(argmem: readwrite) uwtable
define hidden range(i32 -137, 1) i32 @psa_key_derivation_set_capacity(ptr noundef captures(none) %0, i64 noundef %1) local_unnamed_addr #10 {
  %3 = load i32, ptr %0, align 8, !tbaa !74
  %4 = icmp eq i32 %3, 0
  br i1 %4, label %10, label %5

5:                                                ; preds = %2
  %6 = getelementptr inbounds nuw i8, ptr %0, i64 8
  %7 = load i64, ptr %6, align 8, !tbaa !76
  %8 = icmp ugt i64 %1, %7
  br i1 %8, label %10, label %9

9:                                                ; preds = %5
  store i64 %1, ptr %6, align 8, !tbaa !76
  br label %10

10:                                               ; preds = %5, %2, %9
  %.0 = phi i32 [ 0, %9 ], [ -137, %2 ], [ -135, %5 ]
  ret i32 %.0
}